target datalayout = "e-m:e-p270:32:32-p271:32:32-p272:64:64-i64:64-i128:128-f80:128-n8:16:32:64-S128"
target triple = "x86_64-pc-linux-gnu"

; Function Attrs: nounwind uwtable
define i64 @FSE_compress_usingCTable(ptr noundef %0, i64 noundef %1, ptr noundef %2, i64 noundef %3, ptr noundef %4) #0 {
  %6 = alloca i64, align 8
  %7 = alloca ptr, align 8
  %8 = alloca i64, align 8
  %9 = alloca ptr, align 8
  %10 = alloca i64, align 8
  %11 = alloca ptr, align 8
  %12 = alloca i32, align 4
  %13 = alloca i32, align 4
  store ptr %0, ptr %7, align 8, !tbaa !12
  store i64 %1, ptr %8, align 8, !tbaa !13
  store ptr %2, ptr %9, align 8, !tbaa !12
  store i64 %3, ptr %10, align 8, !tbaa !13
  store ptr %4, ptr %11, align 8, !tbaa !3
  call void @llvm.lifetime.start.p0(i64 4, ptr %12) #6
  %14 = load i64, ptr %8, align 8, !tbaa !13
  %15 = load i64, ptr %10, align 8, !tbaa !13
  %16 = load i64, ptr %10, align 8, !tbaa !13
  %17 = lshr i64 %16, 7
  %18 = add i64 %15, %17
  %19 = add i64 %18, 4
  %20 = add i64 %19, 8
  %21 = icmp uge i64 %14, %20
  %22 = zext i1 %21 to i32
  store i32 %22, ptr %12, align 4, !tbaa !10
  %23 = load i32, ptr %12, align 4, !tbaa !10
  %24 = icmp ne i32 %23, 0
  br i1 %24, label %25, label %32

25:                                               ; preds = %5
  %26 = load ptr, ptr %7, align 8, !tbaa !12
  %27 = load i64, ptr %8, align 8, !tbaa !13
  %28 = load ptr, ptr %9, align 8, !tbaa !12
  %29 = load i64, ptr %10, align 8, !tbaa !13
  %30 = load ptr, ptr %11, align 8, !tbaa !3
  %31 = call i64 @FSE_compress_usingCTable_generic(ptr noundef %26, i64 noundef %27, ptr noundef %28, i64 noundef %29, ptr noundef %30, i32 noundef 1)
  store i64 %31, ptr %6, align 8
  store i32 1, ptr %13, align 4
  br label %39

32:                                               ; preds = %5
  %33 = load ptr, ptr %7, align 8, !tbaa !12
  %34 = load i64, ptr %8, align 8, !tbaa !13
  %35 = load ptr, ptr %9, align 8, !tbaa !12
  %36 = load i64, ptr %10, align 8, !tbaa !13
  %37 = load ptr, ptr %11, align 8, !tbaa !3
  %38 = call i64 @FSE_compress_usingCTable_generic(ptr noundef %33, i64 noundef %34, ptr noundef %35, i64 noundef %36, ptr noundef %37, i32 noundef 0)
  store i64 %38, ptr %6, align 8
  store i32 1, ptr %13, align 4
  br label %39

39:                                               ; preds = %32, %25
  call void @llvm.lifetime.end.p0(i64 4, ptr %12) #6
  %40 = load i64, ptr %6, align 8
  ret i64 %40
}